; Function Attrs: null_pointer_is_valid sspstrong uwtable
define hidden range(i32 -268435456, 268435456) i32 @dissect_s1ap_EUTRAN_CGI_PDU(ptr noundef %0, ptr noundef %1, ptr noundef %2, ptr readnone captures(none) %3) #0 {
  %5 = alloca %struct._asn1_ctx_t, align 8
  call void @llvm.lifetime.start.p0(i64 208, ptr nonnull %5) #8
  call void @asn1_ctx_init(ptr noundef nonnull %5, i32 noundef 1, i1 noundef zeroext true, ptr noundef %1)
  %6 = load i32, ptr @hf_s1ap_s1ap_EUTRAN_CGI_PDU, align 4
  %7 = getelementptr inbounds nuw i8, ptr %5, i64 16
  %8 = load ptr, ptr %7, align 8
  %9 = getelementptr inbounds nuw i8, ptr %8, i64 408
  %10 = load ptr, ptr %9, align 8
  %11 = load i32, ptr @proto_s1ap, align 4
  %12 = call ptr @p_get_proto_data(ptr noundef %10, ptr noundef %8, i32 noundef %11, i32 noundef 0)
  %.not.i.i = icmp eq ptr %12, null
  br i1 %.not.i.i, label %13, label %dissect_s1ap_EUTRAN_CGI.exit

13:                                               ; preds = %4
  %14 = load ptr, ptr %9, align 8
  %15 = call noalias dereferenceable_or_null(64) ptr @wmem_alloc0(ptr noundef %14, i64 noundef 64) #9
  %16 = load ptr, ptr %9, align 8
  %17 = load i32, ptr @proto_s1ap, align 4
  call void @p_add_proto_data(ptr noundef %16, ptr noundef %8, i32 noundef %17, i32 noundef 0, ptr noundef %15)
  br label %dissect_s1ap_EUTRAN_CGI.exit

dissect_s1ap_EUTRAN_CGI.exit:                     ; preds = %4, %13
  %.0.i.i = phi ptr [ %12, %4 ], [ %15, %13 ]
  %18 = getelementptr inbounds nuw i8, ptr %.0.i.i, i64 60
  store i32 5, ptr %18, align 4
  %19 = load i32, ptr @ett_s1ap_EUTRAN_CGI, align 4
  %20 = call i32 @dissect_per_sequence(ptr noundef %0, i32 noundef 0, ptr noundef nonnull %5, ptr noundef %2, i32 noundef %6, i32 noundef %19, ptr noundef nonnull @EUTRAN_CGI_sequence)
  %21 = add i32 %20, 7
  %22 = ashr i32 %21, 3
  call void @llvm.lifetime.end.p0(i64 208, ptr nonnull %5) #8
  ret i32 %22
}